-----BEGIN CERTIFICATE-----
MIIESDCCAzCgAwIBAgIKYV7lVQAAAAAAAzANBgkqhkiG9w0BAQUFADA2MRIwEAYD
VQQKEwlEZWxsIEluYy4xIDAeBgNVBAMTF0RlbGwgSW5jLiBFbnRlcnByaXNlIENB
MB4XDTA0MTExODAzMzYwMFoXDTEwMTExODAzNDYwMFowPzESMBAGA1UEChMJRGVs
bCBJbmMuMSkwJwYDVQQDEyBEZWxsIEluYy4gRW50ZXJwcmlzZSBJc3N1aW5nIENB
MTCCASIwDQYJKoZIhvcNAQEBBQADggEPADCCAQoCggEBAM6I8ZY1mASaZVIbn1/c
BS1NTUKyamXRWLbG3W8mpfKNsUAOHcqB+O5cvl1IG9Nsmv2J+AeNEY2oH0gNSSju
GG9PskG1KS3NDNrzV9IvRalMqkVFeTSVpLkLsGfcJ+F/Q4Risc6PIQwZXLxdgM0u
vBX0c3QtNhmpdMl4matuj2cpxfHdVii+MfD++DKmJM8bpUBPfj4pKrADrZvpJ4yb
W1STW8TBix9FuAtnOb3YDJIuiC7fO0nHN3seRLNjQyUjqTvrqqcn9Ph/14t7NCPn
Wmh30YWmRWOyiELEolhOjJku6Nijx60deJPq2vXoH4PcvEBuZZNsPc509rMmZ3QM
7m0CAwEAAaOCAU0wggFJMBIGA1UdEwEB/wQIMAYBAf8CAQAwHQYDVR0OBBYEFBFC
CftxxuVbV4AN4NDt8GQ09JFzMAsGA1UdDwQEAwIBhjAQBgkrBgEEAYI3FQEEAwIB
ADAZBgkrBgEEAYI3FAIEDB4KAFMAdQBiAEMAQTAfBgNVHSMEGDAWgBSkZiEOAUG4
9enxccbQONIFNWmqEzBQBgNVHR8ESTBHMEWgQ6BBhj9odHRwOi8vZGVsbGluY2Nh
LmRlbGwuY29tL2NybC9EZWxsJTIwSW5jLiUyMEVudGVycHJpc2UlMjBDQS5jcmww
ZwYIKwYBBQUHAQEEWzBZMFcGCCsGAQUFBzAChktodHRwOi8vZGVsbGluY2NhLmRl
bGwuY29tL2NybC9hdXNlY2FzdWIwMV9EZWxsJTIwSW5jLiUyMEVudGVycHJpc2Ul
MjBDQS5jcnQwDQYJKoZIhvcNAQEFBQADggEBABt4KFkQG073GDd5kPZ53WCYf2fi
eZjEP+33W5zW9a8L0yHFoToLOkcA8aL7e+Ac6bk31v8IWAQOuk9775wwVicPJYld
GzdPvHJ5qTp0MkaV9X8hnUXltwBepxWiagbgx2MqU+6/WZQeGHaMI570idMukdFs
VL1W9XjZQDvwHXX/gHyBa/IyYzIrKNYQStpeK18cwokhDcJ8Io6MxujZA3Xc8QRw
tJyXCy+ommIhX1XX8fqRHCosjz5V7H6lwEJcHOTFU3xY55zP1k0q22nhAIX+d7aU
So4nSoF65fNOFihgwY5edgzENhwDYjQ5PXJlHf/hGRcxXWFoP1WsY/7M8pw=
-----END CERTIFICATE-----

Certificate:
    Data:
        Version: 3 (0x2)
        Serial Number:
            61:5e:e5:55:00:00:00:00:00:03
        Signature Algorithm: sha1WithRSAEncryption
        Issuer: O=Dell Inc., CN=Dell Inc. Enterprise CA
        Validity
            Not Before: Nov 18 03:36:00 2004 GMT
            Not After : Nov 18 03:46:00 2010 GMT
        Subject: O=Dell Inc., CN=Dell Inc. Enterprise Issuing CA1
        Subject Public Key Info:
            Public Key Algorithm: rsaEncryption
            RSA Public Key: (2048 bit)
                Modulus (2048 bit):
                    00:ce:88:f1:96:35:98:04:9a:65:52:1b:9f:5f:dc:
                    05:2d:4d:4d:42:b2:6a:65:d1:58:b6:c6:dd:6f:26:
                    a5:f2:8d:b1:40:0e:1d:ca:81:f8:ee:5c:be:5d:48:
                    1b:d3:6c:9a:fd:89:f8:07:8d:11:8d:a8:1f:48:0d:
                    49:28:ee:18:6f:4f:b2:41:b5:29:2d:cd:0c:da:f3:
                    57:d2:2f:45:a9:4c:aa:45:45:79:34:95:a4:b9:0b:
                    b0:67:dc:27:e1:7f:43:84:62:b1:ce:8f:21:0c:19:
                    5c:bc:5d:80:cd:2e:bc:15:f4:73:74:2d:36:19:a9:
                    74:c9:78:99:ab:6e:8f:67:29:c5:f1:dd:56:28:be:
                    31:f0:fe:f8:32:a6:24:cf:1b:a5:40:4f:7e:3e:29:
                    2a:b0:03:ad:9b:e9:27:8c:9b:5b:54:93:5b:c4:c1:
                    8b:1f:45:b8:0b:67:39:bd:d8:0c:92:2e:88:2e:df:
                    3b:49:c7:37:7b:1e:44:b3:63:43:25:23:a9:3b:eb:
                    aa:a7:27:f4:f8:7f:d7:8b:7b:34:23:e7:5a:68:77:
                    d1:85:a6:45:63:b2:88:42:c4:a2:58:4e:8c:99:2e:
                    e8:d8:a3:c7:ad:1d:78:93:ea:da:f5:e8:1f:83:dc:
                    bc:40:6e:65:93:6c:3d:ce:74:f6:b3:26:67:74:0c:
                    ee:6d
                Exponent: 65537 (0x10001)
        X509v3 extensions:
            X509v3 Basic Constraints: critical
                CA:TRUE, pathlen:0
            X509v3 Subject Key Identifier:
                11:42:09:FB:71:C6:E5:5B:57:80:0D:E0:D0:ED:F0:64:34:F4:91:73
            X509v3 Key Usage:
                Digital Signature, Certificate Sign, CRL Sign
            1.3.6.1.4.1.311.21.1:
                ...
            1.3.6.1.4.1.311.20.2:
                .
.S.u.b.C.A
            X509v3 Authority Key Identifier:
                keyid:A4:66:21:0E:01:41:B8:F5:E9:F1:71:C6:D0:38:D2:05:35:69:AA:13

            X509v3 CRL Distribution Points:
                URI:http://dellincca.dell.com/crl/Dell%20Inc.%20Enterprise%20CA.crl

            Authority Information Access:
                CA Issuers - URI:http://dellincca.dell.com/crl/ausecasub01_Dell%20Inc.%20Enterprise%20CA.crt

    Signature Algorithm: sha1WithRSAEncryption
        1b:78:28:59:10:1b:4e:f7:18:37:79:90:f6:79:dd:60:98:7f:
        67:e2:79:98:c4:3f:ed:f7:5b:9c:d6:f5:af:0b:d3:21:c5:a1:
        3a:0b:3a:47:00:f1:a2:fb:7b:e0:1c:e9:b9:37:d6:ff:08:58:
        04:0e:ba:4f:7b:ef:9c:30:56:27:0f:25:89:5d:1b:37:4f:bc:
        72:79:a9:3a:74:32:46:95:f5:7f:21:9d:45:e5:b7:00:5e:a7:
        15:a2:6a:06:e0:c7:63:2a:53:ee:bf:59:94:1e:18:76:8c:23:
        9e:f4:89:d3:2e:91:d1:6c:54:bd:56:f5:78:d9:40:3b:f0:1d:
        75:ff:80:7c:81:6b:f2:32:63:32:2b:28:d6:10:4a:da:5e:2b:
        5f:1c:c2:89:21:0d:c2:7c:22:8e:8c:c6:e8:d9:03:75:dc:f1:
        04:70:b4:9c:97:0b:2f:a8:9a:62:21:5f:55:d7:f1:fa:91:1c:
        2a:2c:8f:3e:55:ec:7e:a5:c0:42:5c:1c:e4:c5:53:7c:58:e7:
        9c:cf:d6:4d:2a:db:69:e1:00:85:fe:77:b6:94:4a:8e:27:4a:
        81:7a:e5:f3:4e:16:28:60:c1:8e:5e:76:0c:c4:36:1c:03:62:
        34:39:3d:72:65:1d:ff:e1:19:17:31:5d:61:68:3f:55:ac:63:
        fe:cc:f2:9c

Array
(
    [fingerprints] => Array
        (
            [md5] => 08e111f87b4352d3c2f5d8b701f359df
            [sha1] => 8da67bca3b8129b6368c06c90e24040033c6016b
        )

    [certificate] => Array
        (
            [extensions] => Array
                (
                    [supported] => Array
                        (
                            [id-ce-basicConstraints] => Array
                                (
                                    [critical] => 1
                                    [CA] => 1
                                    [pathlen] => 0
                                )

                            [id-ce-subjectKeyIdentifier] => 11:42:09:fb:71:c6:e5:5b:57:80:0d:e0:d0:ed:f0:64:34:f4:91:73
                            [id-ce-keyUsage] => Array
                                (
                                    [critical] =>
                                    [usages] => Array
                                        (
                                            [0] => digitalSignature
                                            [1] => keyCertSign
                                            [2] => cRLSign
                                        )

                                )

                            [id-ce-CRLDistributionPoints] => Array
                                (
                                    [0] => http://dellincca.dell.com/crl/Dell Inc. Enterprise CA.crl
                                )

                        )

                )

            [version] => 3
            [serialNumber] => 459820067895691989483523
            [signature] => SHA-1WithRSAEncryption
            [issuer] => Array
                (
                    [OrganizationalUnit] => Array
                        (
                        )

                    [Organization] => Dell Inc.
                    [CommonName] => Dell Inc. Enterprise CA
                )

            [validity] => Array
                (
                    [notbefore] => 1100748960
                    [notafter] => 1290051960
                )

            [subject] => Array
                (
                    [OrganizationalUnit] => Array
                        (
                        )

                    [Organization] => Dell Inc.
                    [CommonName] => Dell Inc. Enterprise Issuing CA1
                )

            [subjectPublicKeyInfo] => Array
                (
                    [algorithm] => RSAEncryption
                    [subjectPublicKey] => Array
                        (
                            [modulus] => 26072620277478698288107175751015098902518301876496876900966401639095852014206668514789200170652933596301873633243352581819115915912855582979254222601254966607824030800875072310005677254247536659081285571529304566246370943519623627420180126319354958001515458255646516318750017507599137093309186524965303953365257700734947775174851762711338172303654575352786022991035157505511131854109179769659133009007278231866936220910087673121825988471810463297676033221439669135730708452023453156652275683033252838068640447681694586362879268374913176043484900569145455575678761709026471434244619146066464268836765853579943634333293
                            [publicExponent] => 65537
                        )

                )

        )

    [signatureAlgorithm] => SHA-1WithRSAEncryption
    [signature] => x(YN÷7yöyİ`?gây?Ä?í÷[?Öõ¯Ó!Å¡::G ñ¢û{àé¹7ÖÿXºO{ï?0V'%?]7O¼ry©:t2F?õ!Eå· ^§¢jàÇc*Sî¿Y?v?#?ô?Ó.?ÑlT½VõxÙ@;ğuÿ?|kò2c2+(ÖJÚ^+_Â?!
Â|"??ÆèÙuÜñp´??/¨?b!_U×ñú?*,>Uì~¥ÀB\äÅS|Xç?ÏÖM*Ûiá ?şw¶?J?'JzåóN(`Á?^vÄ6b49=reÿá1]ah?U¬cşÌò?
)
