-----BEGIN CERTIFICATE-----
MIIDfjCCAuegAwIBAgIKGfkA6AADAAARIDANBgkqhkiG9w0BAQUFADBGMQswCQYD
VQQGEwJVUzETMBEGA1UEChMKR29vZ2xlIEluYzEiMCAGA1UEAxMZR29vZ2xlIElu
dGVybmV0IEF1dGhvcml0eTAeFw0xMDAzMDUwMzA2MDVaFw0xMTAzMDUwMzE2MDVa
MGYxCzAJBgNVBAYTAlVTMRMwEQYDVQQIEwpDYWxpZm9ybmlhMRYwFAYDVQQHEw1N
b3VudGFpbiBWaWV3MRMwEQYDVQQKEwpHb29nbGUgSW5jMRUwEwYDVQQDFAwqLmdv
b2dsZS5jb20wgZ8wDQYJKoZIhvcNAQEBBQADgY0AMIGJAoGBAMiVo97htMBDHCxF
ShSReIBWp6PwnK8XS1SF3pqRd+oNUQclb0MdpLMYOjgQbeLvkWlqBSLQAl2Miq4w
LDaOHFcXLox1YcSM1mhBO6mJsciqYDhQ4kaKv+HsQUo1mi92pZtH1CMOVFlNFBUL
+JA2WGEbKuv/KCReR30aR02UeFx7AgMBAAGjggFRMIIBTTAdBgNVHQ4EFgQUk+L5
vAvwfZe0+xlwXYtXiyGMM8swHwYDVR0jBBgwFoAUv8Aw6/VDET5nup6R+/xq2uNr
EiQwWwYDVR0fBFQwUjBQoE6gTIZKaHR0cDovL3d3dy5nc3RhdGljLmNvbS9Hb29n
bGVJbnRlcm5ldEF1dGhvcml0eS9Hb29nbGVJbnRlcm5ldEF1dGhvcml0eS5jcmww
ZgYIKwYBBQUHAQEEWjBYMFYGCCsGAQUFBzAChkpodHRwOi8vd3d3LmdzdGF0aWMu
Y29tL0dvb2dsZUludGVybmV0QXV0aG9yaXR5L0dvb2dsZUludGVybmV0QXV0aG9y
aXR5LmNydDAhBgkrBgEEAYI3FAIEFB4SAFcAZQBiAFMAZQByAHYAZQByMCMGA1Ud
EQQcMBqCDCouZ29vZ2xlLmNvbYIKZ29vZ2xlLmNvbTANBgkqhkiG9w0BAQUFAAOB
gQCX0W4GDsPcuZ5jcyyi2Qn+z22J0plN6PPWJSfLeq4vN6tLK/WsRjA9vImJnNnf
Viqf3mULcLgati3hc3S4UFgdxLfKC1U9/jm0ulLVWUadmERt3XOxfEdpeGizpwPX
rRpx6xwYr6PfZhRV0X+wHgHq6gXL1S0HekdUeBn1tAtDkQ==
-----END CERTIFICATE-----

Certificate:
    Data:
        Version: 3 (0x2)
        Serial Number:
            19:f9:00:e8:00:03:00:00:11:20
        Signature Algorithm: sha1WithRSAEncryption
        Issuer: C=US, O=Google Inc, CN=Google Internet Authority
        Validity
            Not Before: Mar  5 03:06:05 2010 GMT
            Not After : Mar  5 03:16:05 2011 GMT
        Subject: C=US, ST=California, L=Mountain View, O=Google Inc, CN=*.google.com
        Subject Public Key Info:
            Public Key Algorithm: rsaEncryption
            RSA Public Key: (1024 bit)
                Modulus (1024 bit):
                    00:c8:95:a3:de:e1:b4:c0:43:1c:2c:45:4a:14:91:
                    78:80:56:a7:a3:f0:9c:af:17:4b:54:85:de:9a:91:
                    77:ea:0d:51:07:25:6f:43:1d:a4:b3:18:3a:38:10:
                    6d:e2:ef:91:69:6a:05:22:d0:02:5d:8c:8a:ae:30:
                    2c:36:8e:1c:57:17:2e:8c:75:61:c4:8c:d6:68:41:
                    3b:a9:89:b1:c8:aa:60:38:50:e2:46:8a:bf:e1:ec:
                    41:4a:35:9a:2f:76:a5:9b:47:d4:23:0e:54:59:4d:
                    14:15:0b:f8:90:36:58:61:1b:2a:eb:ff:28:24:5e:
                    47:7d:1a:47:4d:94:78:5c:7b
                Exponent: 65537 (0x10001)
        X509v3 extensions:
            X509v3 Subject Key Identifier:
                93:E2:F9:BC:0B:F0:7D:97:B4:FB:19:70:5D:8B:57:8B:21:8C:33:CB
            X509v3 Authority Key Identifier:
                keyid:BF:C0:30:EB:F5:43:11:3E:67:BA:9E:91:FB:FC:6A:DA:E3:6B:12:24

            X509v3 CRL Distribution Points:
                URI:http://www.gstatic.com/GoogleInternetAuthority/GoogleInternetAuthority.crl

            Authority Information Access:
                CA Issuers - URI:http://www.gstatic.com/GoogleInternetAuthority/GoogleInternetAuthority.crt

            1.3.6.1.4.1.311.20.2:
                ...W.e.b.S.e.r.v.e.r
            X509v3 Subject Alternative Name:
                DNS:*.google.com, DNS:google.com
    Signature Algorithm: sha1WithRSAEncryption
        97:d1:6e:06:0e:c3:dc:b9:9e:63:73:2c:a2:d9:09:fe:cf:6d:
        89:d2:99:4d:e8:f3:d6:25:27:cb:7a:ae:2f:37:ab:4b:2b:f5:
        ac:46:30:3d:bc:89:89:9c:d9:df:56:2a:9f:de:65:0b:70:b8:
        1a:b6:2d:e1:73:74:b8:50:58:1d:c4:b7:ca:0b:55:3d:fe:39:
        b4:ba:52:d5:59:46:9d:98:44:6d:dd:73:b1:7c:47:69:78:68:
        b3:a7:03:d7:ad:1a:71:eb:1c:18:af:a3:df:66:14:55:d1:7f:
        b0:1e:01:ea:ea:05:cb:d5:2d:07:7a:47:54:78:19:f5:b4:0b:
        43:91

Array
(
    [fingerprints] => Array
        (
            [md5] => ca4e2a59e93c96ae72609713bd70f29f
            [sha1] => 718dcec9b4582766c044a5ff51583a581bd6402f
        )

    [certificate] => Array
        (
            [extensions] => Array
                (
                    [supported] => Array
                        (
                            [id-ce-subjectKeyIdentifier] => 93:e2:f9:bc:0b:f0:7d:97:b4:fb:19:70:5d:8b:57:8b:21:8c:33:cb
                            [id-ce-CRLDistributionPoints] => Array
                                (
                                    [0] => http://www.gstatic.com/GoogleInternetAuthority/GoogleInternetAuthority.crl
                                )

                        )

                )

            [version] => 3
            [serialNumber] => 122652466648302290473248
            [signature] => SHA-1WithRSAEncryption
            [issuer] => Array
                (
                    [OrganizationalUnit] => Array
                        (
                        )

                    [Country] => US
                    [Organization] => Google Inc
                    [CommonName] => Google Internet Authority
                )

            [validity] => Array
                (
                    [notbefore] => 1267758365
                    [notafter] => 1299294965
                )

            [subject] => Array
                (
                    [OrganizationalUnit] => Array
                        (
                        )

                    [Country] => US
                    [StateOrProvince] => California
                    [Location] => Mountain View
                    [Organization] => Google Inc
                    [CommonName] => *.google.com
                )

            [subjectPublicKeyInfo] => Array
                (
                    [algorithm] => RSAEncryption
                    [subjectPublicKey] => Array
                        (
                            [modulus] => 140855248292164745300255564431951512881501598985787632817859522995370645935716598245353197388949315910722432122031406279537681730258144950989380253366782039296676159973229308316536285554821951969537679239911582564197848937496404782879124357059980447885600139658594479889239790356184012313513561087821619944571
                            [publicExponent] => 65537
                        )

                )

        )

    [signatureAlgorithm] => SHA-1WithRSAEncryption
    [signature] => —ÑnÃÜ¹žcs,¢Ù	þÏm‰Ò™MèóÖ%'Ëz®/7«K+õ¬F0=¼‰‰œÙßV*ŸÞep¸¶-ást¸PXÄ·ÊU=þ9´ºRÕYF˜DmÝs±|Gixh³§×­që¯£ßfUÑ°êêËÕ-zGTxõ´C‘
)
