-----BEGIN CERTIFICATE-----
MIICJjCCAdACCQCZdHcZoRGbmTANBgkqhkiG9w0BAQUFADCBmTELMAkGA1UEBhMC
VVMxEzARBgNVBAgTCkNhbGlmb3JuaWExDzANBgNVBAcTBklydmluZTEbMBkGA1UE
ChMSQ2lzY28tTGlua3N5cywgTExDMREwDwYDVQQLEwhEaXZpc2lvbjEQMA4GA1UE
AxMHTGlua3N5czEiMCAGCSqGSIb3DQEJARYTc3VwcG9ydEBsaW5rc3lzLmNvbTAe
Fw0wODEyMTYwNzMwMDNaFw0xODEyMTQwNzMwMDNaMIGZMQswCQYDVQQGEwJVUzET
MBEGA1UECBMKQ2FsaWZvcm5pYTEPMA0GA1UEBxMGSXJ2aW5lMRswGQYDVQQKExJD
aXNjby1MaW5rc3lzLCBMTEMxETAPBgNVBAsTCERpdmlzaW9uMRAwDgYDVQQDEwdM
aW5rc3lzMSIwIAYJKoZIhvcNAQkBFhNzdXBwb3J0QGxpbmtzeXMuY29tMFwwDQYJ
KoZIhvcNAQEBBQADSwAwSAJBAOPKHO2BNS2vzaFe37HlV6JRoyDlAV2g/vNGZWdZ
0sxkQC33CZUSd1K7WLffPjVkra/dbu0g85M06EEGY9gAvLECAwEAATANBgkqhkiG
9w0BAQUFAANBANuoBbhLuFMe6pDRCooIGR+LKUapSNx9EuoSaIv7v7gwCGGFR22p
EfTxsqEr/LTbrimh9WWxa5HF8dB69N/cJf4=
-----END CERTIFICATE-----

Certificate:
    Data:
        Version: 1 (0x0)
        Serial Number:
            99:74:77:19:a1:11:9b:99
        Signature Algorithm: sha1WithRSAEncryption
        Issuer: C=US, ST=California, L=Irvine, O=Cisco-Linksys, LLC, OU=Division, CN=Linksys/emailAddress=support@linksys.com
        Validity
            Not Before: Dec 16 07:30:03 2008 GMT
            Not After : Dec 14 07:30:03 2018 GMT
        Subject: C=US, ST=California, L=Irvine, O=Cisco-Linksys, LLC, OU=Division, CN=Linksys/emailAddress=support@linksys.com
        Subject Public Key Info:
            Public Key Algorithm: rsaEncryption
            RSA Public Key: (512 bit)
                Modulus (512 bit):
                    00:e3:ca:1c:ed:81:35:2d:af:cd:a1:5e:df:b1:e5:
                    57:a2:51:a3:20:e5:01:5d:a0:fe:f3:46:65:67:59:
                    d2:cc:64:40:2d:f7:09:95:12:77:52:bb:58:b7:df:
                    3e:35:64:ad:af:dd:6e:ed:20:f3:93:34:e8:41:06:
                    63:d8:00:bc:b1
                Exponent: 65537 (0x10001)
    Signature Algorithm: sha1WithRSAEncryption
        db:a8:05:b8:4b:b8:53:1e:ea:90:d1:0a:8a:08:19:1f:8b:29:
        46:a9:48:dc:7d:12:ea:12:68:8b:fb:bf:b8:30:08:61:85:47:
        6d:a9:11:f4:f1:b2:a1:2b:fc:b4:db:ae:29:a1:f5:65:b1:6b:
        91:c5:f1:d0:7a:f4:df:dc:25:fe

Array
(
    [fingerprints] => Array
        (
            [md5] => b05760ae5271e7da6568bfcea30510be
            [sha1] => 538afec7376035c68ec9b1d461237a51900ac090
        )

    [certificate] => Array
        (
            [version] => 1
            [serialNumber] => 11057593937061583769
            [signature] => SHA-1WithRSAEncryption
            [issuer] => Array
                (
                    [OrganizationalUnit] => Array
                        (
                            [0] => Division
                        )

                    [Country] => US
                    [StateOrProvince] => California
                    [Location] => Irvine
                    [Organization] => Cisco-Linksys, LLC
                    [CommonName] => Linksys
                    [Email] => support@linksys.com
                )

            [validity] => Array
                (
                    [notbefore] => 1229412603
                    [notafter] => 1544772603
                )

            [subject] => Array
                (
                    [OrganizationalUnit] => Array
                        (
                            [0] => Division
                        )

                    [Country] => US
                    [StateOrProvince] => California
                    [Location] => Irvine
                    [Organization] => Cisco-Linksys, LLC
                    [CommonName] => Linksys
                    [Email] => support@linksys.com
                )

            [subjectPublicKeyInfo] => Array
                (
                    [algorithm] => RSAEncryption
                    [subjectPublicKey] => Array
                        (
                            [modulus] => 11930304362427092866754350164020913049662311961741943909893376837957542388216472202406038635009131100038238323683571786911645862550281044729560373609413809
                            [publicExponent] => 65537
                        )

                )

            [extensions] => Array
                (
                )

        )

    [signatureAlgorithm] => SHA-1WithRSAEncryption
    [signature] => Ϋ¨ΈKΈSκΡ
??)F©Hά}κh?ϋΏΈ0a?Gm©τρ²΅+ό΄Ϋ®)΅υe±k?ΕρΠzτίά%ώ
)
