-----BEGIN CERTIFICATE-----
MIIEvjCCBCegAwIBAgIQRNhFf6x7E5R/yTdWqJxVAjANBgkqhkiG9w0BAQUFADCB
ujEfMB0GA1UEChMWVmVyaVNpZ24gVHJ1c3QgTmV0d29yazEXMBUGA1UECxMOVmVy
aVNpZ24sIEluYy4xMzAxBgNVBAsTKlZlcmlTaWduIEludGVybmF0aW9uYWwgU2Vy
dmVyIENBIC0gQ2xhc3MgMzFJMEcGA1UECxNAd3d3LnZlcmlzaWduLmNvbS9DUFMg
SW5jb3JwLmJ5IFJlZi4gTElBQklMSVRZIExURC4oYyk5NyBWZXJpU2lnbjAeFw0w
OTAyMDIwMDAwMDBaFw0xMTAyMTgyMzU5NTlaMIHOMQswCQYDVQQGEwJVUzERMA8G
A1UECBMIQXJrYW5zYXMxFDASBgNVBAcUC0xpdHRsZSBSb2NrMScwJQYDVQQKFB5N
dWx0aS1NYW5hZ2VtZW50IFNlcnZpY2VzLCBJbmMxHTAbBgNVBAsUFEluZm9ybWF0
aW9uIFNlcnZpY2VzMTMwMQYDVQQLFCpUZXJtcyBvZiB1c2UgYXQgd3d3LnZlcmlz
aWduLmNvbS9ycGEgKGMpMDUxGTAXBgNVBAMUEHd3dy5hcHBzNG1lZC5jb20wgZ8w
DQYJKoZIhvcNAQEBBQADgY0AMIGJAoGBAKbgpy7x5zUr040Y3VwYBVyhI6oKmjf3
NKMRYGGU9WgJsPCki4JM7NKfi/bgMBvpiNjD13j8HkyI+TO5NxmkV9KW4BBhFIXo
Kg7ZjdUzUmxhjlucE5I1ARTKwnp60K68R6I5sX431YOJvyf90Fv+NbglIx7LR5Ny
Bf8Opgx3Yn2dAgMBAAGjggGtMIIBqTAJBgNVHRMEAjAAMAsGA1UdDwQEAwIFoDBE
BgNVHSAEPTA7MDkGC2CGSAGG+EUBBxcDMCowKAYIKwYBBQUHAgEWHGh0dHBzOi8v
d3d3LnZlcmlzaWduLmNvbS9ycGEwPAYDVR0fBDUwMzAxoC+gLYYraHR0cDovL1NW
UkludGwtY3JsLnZlcmlzaWduLmNvbS9TVlJJbnRsLmNybDAoBgNVHSUEITAfBggr
BgEFBQcDAQYIKwYBBQUHAwIGCWCGSAGG+EIEATBxBggrBgEFBQcBAQRlMGMwJAYI
KwYBBQUHMAGGGGh0dHA6Ly9vY3NwLnZlcmlzaWduLmNvbTA7BggrBgEFBQcwAoYv
aHR0cDovL1NWUkludGwtYWlhLnZlcmlzaWduLmNvbS9TVlJJbnRsLWFpYS5jZXIw
bgYIKwYBBQUHAQwEYjBgoV6gXDBaMFgwVhYJaW1hZ2UvZ2lmMCEwHzAHBgUrDgMC
GgQUS2u5KJYGDLvQUjibKaxLB4shBRgwJhYkaHR0cDovL2xvZ28udmVyaXNpZ24u
Y29tL3ZzbG9nbzEuZ2lmMA0GCSqGSIb3DQEBBQUAA4GBANYNdCVHaPyytmohFhxO
IqenPX9xh9E6XLm9wkilUR2oCgUh7oJcthgmYFxEvSXKjvBFfxxrxLibcWnphaJg
Q1Weh/XEm2kryzzQI8z1d62NVyVDgJIhy0KP2sZLM8HIOyACmIFNdil6Akh4J9mG
dEj7+sTqpw1uNRxgLWrv1O7a
-----END CERTIFICATE-----

Certificate:
    Data:
        Version: 3 (0x2)
        Serial Number:
            44:d8:45:7f:ac:7b:13:94:7f:c9:37:56:a8:9c:55:02
        Signature Algorithm: sha1WithRSAEncryption
        Issuer: O=VeriSign Trust Network, OU=VeriSign, Inc., OU=VeriSign International Server CA - Class 3, OU=www.verisign.com/CPS Incorp.by Ref. LIABILITY LTD.(c)97 VeriSign
        Validity
            Not Before: Feb  2 00:00:00 2009 GMT
            Not After : Feb 18 23:59:59 2011 GMT
        Subject: C=US, ST=Arkansas, L=Little Rock, O=Multi-Management Services, Inc, OU=Information Services, OU=Terms of use at www.verisign.com/rpa (c)05, CN=www.apps4med.com
        Subject Public Key Info:
            Public Key Algorithm: rsaEncryption
            RSA Public Key: (1024 bit)
                Modulus (1024 bit):
                    00:a6:e0:a7:2e:f1:e7:35:2b:d3:8d:18:dd:5c:18:
                    05:5c:a1:23:aa:0a:9a:37:f7:34:a3:11:60:61:94:
                    f5:68:09:b0:f0:a4:8b:82:4c:ec:d2:9f:8b:f6:e0:
                    30:1b:e9:88:d8:c3:d7:78:fc:1e:4c:88:f9:33:b9:
                    37:19:a4:57:d2:96:e0:10:61:14:85:e8:2a:0e:d9:
                    8d:d5:33:52:6c:61:8e:5b:9c:13:92:35:01:14:ca:
                    c2:7a:7a:d0:ae:bc:47:a2:39:b1:7e:37:d5:83:89:
                    bf:27:fd:d0:5b:fe:35:b8:25:23:1e:cb:47:93:72:
                    05:ff:0e:a6:0c:77:62:7d:9d
                Exponent: 65537 (0x10001)
        X509v3 extensions:
            X509v3 Basic Constraints:
                CA:FALSE
            X509v3 Key Usage:
                Digital Signature, Key Encipherment
            X509v3 Certificate Policies:
                Policy: 2.16.840.1.113733.1.7.23.3
                  CPS: https://www.verisign.com/rpa

            X509v3 CRL Distribution Points:
                URI:http://SVRIntl-crl.verisign.com/SVRIntl.crl

            X509v3 Extended Key Usage:
                TLS Web Server Authentication, TLS Web Client Authentication, Netscape Server Gated Crypto
            Authority Information Access:
                OCSP - URI:http://ocsp.verisign.com
                CA Issuers - URI:http://SVRIntl-aia.verisign.com/SVRIntl-aia.cer

            1.3.6.1.5.5.7.1.12:
                0`.^.\0Z0X0V..image/gif0!0.0...+......Kk.(.....R8.).K..!..0&.$http://logo.verisign.com/vslogo1.gif
    Signature Algorithm: sha1WithRSAEncryption
        d6:0d:74:25:47:68:fc:b2:b6:6a:21:16:1c:4e:22:a7:a7:3d:
        7f:71:87:d1:3a:5c:b9:bd:c2:48:a5:51:1d:a8:0a:05:21:ee:
        82:5c:b6:18:26:60:5c:44:bd:25:ca:8e:f0:45:7f:1c:6b:c4:
        b8:9b:71:69:e9:85:a2:60:43:55:9e:87:f5:c4:9b:69:2b:cb:
        3c:d0:23:cc:f5:77:ad:8d:57:25:43:80:92:21:cb:42:8f:da:
        c6:4b:33:c1:c8:3b:20:02:98:81:4d:76:29:7a:02:48:78:27:
        d9:86:74:48:fb:fa:c4:ea:a7:0d:6e:35:1c:60:2d:6a:ef:d4:
        ee:da

Array
(
    [fingerprints] => Array
        (
            [md5] => 303d27036c48964b4a127a4631bacfb1
            [sha1] => 7ef1acfb5a668d7040c569628045633015783c65
        )

    [certificate] => Array
        (
            [extensions] => Array
                (
                    [supported] => Array
                        (
                            [id-ce-basicConstraints] => Array
                                (
                                    [critical] =>
                                    [CA] => UNKNOWN
                                    [pathlen] => UNKNOWN
                                )

                            [id-ce-keyUsage] => Array
                                (
                                    [critical] =>
                                    [usages] => Array
                                        (
                                            [0] => digitalSignature
                                            [1] => keyEncipherment
                                        )

                                )

                            [id-ce-certificatePolicies] => https://www.verisign.com/rpa
                            [id-ce-CRLDistributionPoints] => Array
                                (
                                    [0] => http://SVRIntl-crl.verisign.com/SVRIntl.crl
                                )

                            [id-ce-extKeyUsage] => Array
                                (
                                    [0] => id_kp_serverAuth
                                    [1] => id_kp_clientAuth
                                    [2] => nsSGC
                                )

                        )

                )

            [version] => 3
            [serialNumber] => 91510449436437305431424794446490522882
            [signature] => SHA-1WithRSAEncryption
            [issuer] => Array
                (
                    [OrganizationalUnit] => Array
                        (
                            [0] => VeriSign, Inc.
                            [1] => VeriSign International Server CA - Class 3
                            [2] => www.verisign.com/CPS Incorp.by Ref. LIABILITY LTD.(c)97 VeriSign
                        )

                    [Organization] => VeriSign Trust Network
                )

            [validity] => Array
                (
                    [notbefore] => 1233532800
                    [notafter] => 1298073599
                )

            [subject] => Array
                (
                    [OrganizationalUnit] => Array
                        (
                            [0] => Information Services
                            [1] => Terms of use at www.verisign.com/rpa (c)05
                        )

                    [Country] => US
                    [StateOrProvince] => Arkansas
                    [Location] => Little Rock
                    [Organization] => Multi-Management Services, Inc
                    [CommonName] => www.apps4med.com
                )

            [subjectPublicKeyInfo] => Array
                (
                    [algorithm] => RSAEncryption
                    [subjectPublicKey] => Array
                        (
                            [modulus] => 117185401493725201441657245612535216907060742228396441290521901286314480170091179797458036415226513243795955851079867472696363404982662023317723890696877664259937734684940852050232429538805618719309806794159657995407210538519079025785843887846101196334950887870565379020301914703537303444971021364217359007133
                            [publicExponent] => 65537
                        )

                )

        )

    [signatureAlgorithm] => SHA-1WithRSAEncryption
    [signature] => Ö
t%Ghü²¶j!N"§§=q‡Ñ:\¹½ÂH¥Q¨
!î‚\¶&`\D½%ÊŽðEkÄ¸›qié…¢`CUž‡õÄ›i+Ë<Ð#Ìõw­W%C€’!ËBÚÆK3ÁÈ; ˜Mv)zHx'Ù†tHûúÄê§
n5`-jïÔîÚ
)
