-----BEGIN CERTIFICATE-----
MIIEdDCCA92gAwIBAgIQfYZLW1yYn7VFCeRo53bdEzANBgkqhkiG9w0BAQUFADCB
ujEfMB0GA1UEChMWVmVyaVNpZ24gVHJ1c3QgTmV0d29yazEXMBUGA1UECxMOVmVy
aVNpZ24sIEluYy4xMzAxBgNVBAsTKlZlcmlTaWduIEludGVybmF0aW9uYWwgU2Vy
dmVyIENBIC0gQ2xhc3MgMzFJMEcGA1UECxNAd3d3LnZlcmlzaWduLmNvbS9DUFMg
SW5jb3JwLmJ5IFJlZi4gTElBQklMSVRZIExURC4oYyk5NyBWZXJpU2lnbjAeFw0x
MDAyMDQwMDAwMDBaFw0xMTAyMDQyMzU5NTlaMIGEMQswCQYDVQQGEwJVUzERMA8G
A1UECBMIVmlyZ2luaWExEzARBgNVBAcUCkdsZW4gQWxsZW4xHjAcBgNVBAoUFUNh
cGl0YWwgT25lIEZpbmFuY2lhbDEQMA4GA1UECxQHSVBTLUVDTTEbMBkGA1UEAxQS
d3d3LmNhcGl0YWxvbmUuY29tMIGfMA0GCSqGSIb3DQEBAQUAA4GNADCBiQKBgQDn
ldCnFlF6Qg+bgx2qRFDV8rTmGPhH9u4lwKZzjbN/WrGAF4hfHz0VAfzzAS+qVxET
12KLlShM6BtiQ7FtmrYZ6OcoPGGCflYXBhXxhjhgFfzGb17xLRQiXT/mGGNJ9Z88
BcH+sU/VGafcYQBhQ/NUx4MnhJglvGB+6HbgoAaptwIDAQABo4IBrTCCAakwCQYD
VR0TBAIwADALBgNVHQ8EBAMCBaAwPAYDVR0fBDUwMzAxoC+gLYYraHR0cDovL1NW
UkludGwtY3JsLnZlcmlzaWduLmNvbS9TVlJJbnRsLmNybDBEBgNVHSAEPTA7MDkG
C2CGSAGG+EUBBxcDMCowKAYIKwYBBQUHAgEWHGh0dHBzOi8vd3d3LnZlcmlzaWdu
LmNvbS9ycGEwKAYDVR0lBCEwHwYJYIZIAYb4QgQBBggrBgEFBQcDAQYIKwYBBQUH
AwIwcQYIKwYBBQUHAQEEZTBjMCQGCCsGAQUFBzABhhhodHRwOi8vb2NzcC52ZXJp
c2lnbi5jb20wOwYIKwYBBQUHMAKGL2h0dHA6Ly9TVlJJbnRsLWFpYS52ZXJpc2ln
bi5jb20vU1ZSSW50bC1haWEuY2VyMG4GCCsGAQUFBwEMBGIwYKFeoFwwWjBYMFYW
CWltYWdlL2dpZjAhMB8wBwYFKw4DAhoEFEtruSiWBgy70FI4mymsSweLIQUYMCYW
JGh0dHA6Ly9sb2dvLnZlcmlzaWduLmNvbS92c2xvZ28xLmdpZjANBgkqhkiG9w0B
AQUFAAOBgQA+eFg8lAyV5IOPnIS9NMYG7gjTIg5zZ2TUDCFvrdwrqm/ynOxEfpuU
ISwkR6GZV8ftYa6zOTv/tNlMddS7b5iokFVE6/Iiaq11NIlu/T0po+cOKpprfTSG
hqvPdQF9+Dkb/Wt/JTdXX8PGWJBX6kFcUOfbdlyj6mAH3WlgaYpWjg==
-----END CERTIFICATE-----

Certificate:
    Data:
        Version: 3 (0x2)
        Serial Number:
            7d:86:4b:5b:5c:98:9f:b5:45:09:e4:68:e7:76:dd:13
        Signature Algorithm: sha1WithRSAEncryption
        Issuer: O=VeriSign Trust Network, OU=VeriSign, Inc., OU=VeriSign International Server CA - Class 3, OU=www.verisign.com/CPS Incorp.by Ref. LIABILITY LTD.(c)97 VeriSign
        Validity
            Not Before: Feb  4 00:00:00 2010 GMT
            Not After : Feb  4 23:59:59 2011 GMT
        Subject: C=US, ST=Virginia, L=Glen Allen, O=Capital One Financial, OU=IPS-ECM, CN=www.capitalone.com
        Subject Public Key Info:
            Public Key Algorithm: rsaEncryption
            RSA Public Key: (1024 bit)
                Modulus (1024 bit):
                    00:e7:95:d0:a7:16:51:7a:42:0f:9b:83:1d:aa:44:
                    50:d5:f2:b4:e6:18:f8:47:f6:ee:25:c0:a6:73:8d:
                    b3:7f:5a:b1:80:17:88:5f:1f:3d:15:01:fc:f3:01:
                    2f:aa:57:11:13:d7:62:8b:95:28:4c:e8:1b:62:43:
                    b1:6d:9a:b6:19:e8:e7:28:3c:61:82:7e:56:17:06:
                    15:f1:86:38:60:15:fc:c6:6f:5e:f1:2d:14:22:5d:
                    3f:e6:18:63:49:f5:9f:3c:05:c1:fe:b1:4f:d5:19:
                    a7:dc:61:00:61:43:f3:54:c7:83:27:84:98:25:bc:
                    60:7e:e8:76:e0:a0:06:a9:b7
                Exponent: 65537 (0x10001)
        X509v3 extensions:
            X509v3 Basic Constraints:
                CA:FALSE
            X509v3 Key Usage:
                Digital Signature, Key Encipherment
            X509v3 CRL Distribution Points:
                URI:http://SVRIntl-crl.verisign.com/SVRIntl.crl

            X509v3 Certificate Policies:
                Policy: 2.16.840.1.113733.1.7.23.3
                  CPS: https://www.verisign.com/rpa

            X509v3 Extended Key Usage:
                Netscape Server Gated Crypto, TLS Web Server Authentication, TLS Web Client Authentication
            Authority Information Access:
                OCSP - URI:http://ocsp.verisign.com
                CA Issuers - URI:http://SVRIntl-aia.verisign.com/SVRIntl-aia.cer

            1.3.6.1.5.5.7.1.12:
                0`.^.\0Z0X0V..image/gif0!0.0...+......Kk.(.....R8.).K..!..0&.$http://logo.verisign.com/vslogo1.gif
    Signature Algorithm: sha1WithRSAEncryption
        3e:78:58:3c:94:0c:95:e4:83:8f:9c:84:bd:34:c6:06:ee:08:
        d3:22:0e:73:67:64:d4:0c:21:6f:ad:dc:2b:aa:6f:f2:9c:ec:
        44:7e:9b:94:21:2c:24:47:a1:99:57:c7:ed:61:ae:b3:39:3b:
        ff:b4:d9:4c:75:d4:bb:6f:98:a8:90:55:44:eb:f2:22:6a:ad:
        75:34:89:6e:fd:3d:29:a3:e7:0e:2a:9a:6b:7d:34:86:86:ab:
        cf:75:01:7d:f8:39:1b:fd:6b:7f:25:37:57:5f:c3:c6:58:90:
        57:ea:41:5c:50:e7:db:76:5c:a3:ea:60:07:dd:69:60:69:8a:
        56:8e

Array
(
    [fingerprints] => Array
        (
            [md5] => 8ebefd942c68cc31b21a1ad51fd749ff
            [sha1] => 22cc84c95ca50faf91c95ad34c81d352f8189563
        )

    [certificate] => Array
        (
            [extensions] => Array
                (
                    [supported] => Array
                        (
                            [id-ce-basicConstraints] => Array
                                (
                                    [critical] =>
                                    [CA] => UNKNOWN
                                    [pathlen] => UNKNOWN
                                )

                            [id-ce-keyUsage] => Array
                                (
                                    [critical] =>
                                    [usages] => Array
                                        (
                                            [0] => digitalSignature
                                            [1] => keyEncipherment
                                        )

                                )

                            [id-ce-CRLDistributionPoints] => Array
                                (
                                    [0] => http://SVRIntl-crl.verisign.com/SVRIntl.crl
                                )

                            [id-ce-certificatePolicies] => https://www.verisign.com/rpa
                            [id-ce-extKeyUsage] => Array
                                (
                                    [0] => nsSGC
                                    [1] => id_kp_serverAuth
                                    [2] => id_kp_clientAuth
                                )

                        )

                )

            [version] => 3
            [serialNumber] => 166850795671298345516786868074375994643
            [signature] => SHA-1WithRSAEncryption
            [issuer] => Array
                (
                    [OrganizationalUnit] => Array
                        (
                            [0] => VeriSign, Inc.
                            [1] => VeriSign International Server CA - Class 3
                            [2] => www.verisign.com/CPS Incorp.by Ref. LIABILITY LTD.(c)97 VeriSign
                        )

                    [Organization] => VeriSign Trust Network
                )

            [validity] => Array
                (
                    [notbefore] => 1265241600
                    [notafter] => 1296863999
                )

            [subject] => Array
                (
                    [OrganizationalUnit] => Array
                        (
                            [0] => IPS-ECM
                        )

                    [Country] => US
                    [StateOrProvince] => Virginia
                    [Location] => Glen Allen
                    [Organization] => Capital One Financial
                    [CommonName] => www.capitalone.com
                )

            [subjectPublicKeyInfo] => Array
                (
                    [algorithm] => RSAEncryption
                    [subjectPublicKey] => Array
                        (
                            [modulus] => 162624668440688314350818451133149948134177038542584405459263855996452220995903153819017251313399765013503373033825535603653754565455831956263625987200451658547516668749828275513773890856064279116266821508734947626298666671756540650550453028484418724187256590847248179177651550429812005633548032348721120717239
                            [publicExponent] => 65537
                        )

                )

        )

    [signatureAlgorithm] => SHA-1WithRSAEncryption
    [signature] => >xX<”•äƒœ„½4ÆîÓ"sgdÔ!o­Ü+ªoòœìD~›”!,$G¡™WÇía®³9;ÿ´ÙLuÔ»o˜¨UDëò"j­u4‰ný=)£ç*šk}4††«Ïu}ø9ýk%7W_ÃÆXWêA\PçÛv\£ê`Ýi`iŠVŽ
)
